target datalayout = "e-m:e-p270:32:32-p271:32:32-p272:64:64-i64:64-i128:128-f80:128-n8:16:32:64-S128"
target triple = "x86_64-pc-linux-gnu"

%struct.string_list = type { ptr, i64, i64, i8, ptr }
%struct.string_list_item = type { ptr, ptr }

@.str = private unnamed_addr constant [1 x i8] zeroinitializer, align 1
@stderr = external global ptr, align 8
@.str.27 = private unnamed_addr constant [4 x i8] c"%s\0A\00", align 1
@.str.30 = private unnamed_addr constant [123 x i8] c"The following paths have been moved outside the\0Asparse-checkout definition but are not sparse due to local\0Amodifications.\0A\00", align 1
@.str.31 = private unnamed_addr constant [175 x i8] c"To correct the sparsity of these paths, do the following:\0A* Use \22git add --sparse <paths>\22 to update the index\0A* Use \22git sparse-checkout reapply\22 to apply the sparsity rules\00", align 1
@git_gettext_enabled = external global i32, align 4

; Function Attrs: inlinehint nounwind uwtable
define internal ptr @_(ptr noundef %0) #5 {
  %2 = alloca ptr, align 8
  %3 = alloca ptr, align 8
  store ptr %0, ptr %3, align 8, !tbaa !4
  %4 = load ptr, ptr %3, align 8, !tbaa !4
  %5 = load i8, ptr %4, align 1, !tbaa !16
  %6 = icmp ne i8 %5, 0
  br i1 %6, label %8, label %7

7:                                                ; preds = %1
  store ptr @.str, ptr %2, align 8
  br label %16

8:                                                ; preds = %1
  %9 = load i32, ptr @git_gettext_enabled, align 4, !tbaa !9
  %10 = icmp ne i32 %9, 0
  br i1 %10, label %13, label %11

11:                                               ; preds = %8
  %12 = load ptr, ptr %3, align 8, !tbaa !4
  store ptr %12, ptr %2, align 8
  br label %16

13:                                               ; preds = %8
  %14 = load ptr, ptr %3, align 8, !tbaa !4
  %15 = call ptr @dcgettext(ptr noundef null, ptr noundef %14, i32 noundef 5) #10
  store ptr %15, ptr %2, align 8
  br label %16

16:                                               ; preds = %13, %11, %7
  %17 = load ptr, ptr %2, align 8
  ret ptr %17
}

; Function Attrs: nounwind uwtable
define dso_local void @advise_on_moving_dirty_path(ptr noundef %0) #0 {
  %2 = alloca ptr, align 8
  %3 = alloca ptr, align 8
  %4 = alloca i32, align 4
  store ptr %0, ptr %2, align 8, !tbaa !29
  call void @llvm.lifetime.start.p0(i64 8, ptr %3) #10
  %5 = load ptr, ptr %2, align 8, !tbaa !29
  %6 = getelementptr inbounds nuw %struct.string_list, ptr %5, i32 0, i32 1
  %7 = load i64, ptr %6, align 8, !tbaa !32
  %8 = icmp ne i64 %7, 0
  br i1 %8, label %10, label %9

9:                                                ; preds = %1
  store i32 1, ptr %4, align 4
  br label %43

10:                                               ; preds = %1
  %11 = load ptr, ptr @stderr, align 8, !tbaa !17
  %12 = call ptr @_(ptr noundef @.str.30)
  %13 = call i32 (ptr, ptr, ...) @fprintf(ptr noundef %11, ptr noundef %12) #10
  %14 = load ptr, ptr %2, align 8, !tbaa !29
  %15 = getelementptr inbounds nuw %struct.string_list, ptr %14, i32 0, i32 0
  %16 = load ptr, ptr %15, align 8, !tbaa !35
  store ptr %16, ptr %3, align 8, !tbaa !36
  br label %17

17:                                               ; preds = %38, %10
  %18 = load ptr, ptr %3, align 8, !tbaa !36
  %19 = icmp ne ptr %18, null
  br i1 %19, label %20, label %30

20:                                               ; preds = %17
  %21 = load ptr, ptr %3, align 8, !tbaa !36
  %22 = load ptr, ptr %2, align 8, !tbaa !29
  %23 = getelementptr inbounds nuw %struct.string_list, ptr %22, i32 0, i32 0
  %24 = load ptr, ptr %23, align 8, !tbaa !35
  %25 = load ptr, ptr %2, align 8, !tbaa !29
  %26 = getelementptr inbounds nuw %struct.string_list, ptr %25, i32 0, i32 1
  %27 = load i64, ptr %26, align 8, !tbaa !32
  %28 = getelementptr inbounds nuw %struct.string_list_item, ptr %24, i64 %27
  %29 = icmp ult ptr %21, %28
  br label %30

30:                                               ; preds = %20, %17
  %31 = phi i1 [ false, %17 ], [ %29, %20 ]
  br i1 %31, label %32, label %41

32:                                               ; preds = %30
  %33 = load ptr, ptr @stderr, align 8, !tbaa !17
  %34 = load ptr, ptr %3, align 8, !tbaa !36
  %35 = getelementptr inbounds nuw %struct.string_list_item, ptr %34, i32 0, i32 0
  %36 = load ptr, ptr %35, align 8, !tbaa !37
  %37 = call i32 (ptr, ptr, ...) @fprintf(ptr noundef %33, ptr noundef @.str.27, ptr noundef %36) #10
  br label %38

38:                                               ; preds = %32
  %39 = load ptr, ptr %3, align 8, !tbaa !36
  %40 = getelementptr inbounds nuw %struct.string_list_item, ptr %39, i32 1
  store ptr %40, ptr %3, align 8, !tbaa !36
  br label %17, !llvm.loop !40

41:                                               ; preds = %30
  %42 = call ptr @_(ptr noundef @.str.31)
  call void (i32, ptr, ...) @advise_if_enabled(i32 noundef 43, ptr noundef %42)
  store i32 0, ptr %4, align 4
  br label %43

43:                                               ; preds = %41, %9
  call void @llvm.lifetime.end.p0(i64 8, ptr %3) #10
  %44 = load i32, ptr %4, align 4
  switch i32 %44, label %46 [
    i32 0, label %45
    i32 1, label %45
  ]

45:                                               ; preds = %43, %43
  ret void

46:                                               ; preds = %43
  unreachable
}