; Function Attrs: nounwind uwtable
define dso_local void @advise_on_moving_dirty_path(ptr noundef readonly captures(none) %0) local_unnamed_addr #0 {
  %2 = getelementptr inbounds nuw i8, ptr %0, i64 8
  %3 = load i64, ptr %2, align 8, !tbaa !24
  %.not = icmp eq i64 %3, 0
  br i1 %.not, label %26, label %4

4:                                                ; preds = %1
  %5 = load ptr, ptr @stderr, align 8, !tbaa !12
  %6 = load i32, ptr @git_gettext_enabled, align 4, !tbaa !14
  %.not4.i = icmp eq i32 %6, 0
  br i1 %.not4.i, label %_.exit, label %7

7:                                                ; preds = %4
  %8 = tail call ptr @dcgettext(ptr noundef null, ptr noundef nonnull @.str.30, i32 noundef 5) #12
  br label %_.exit

_.exit:                                           ; preds = %4, %7
  %.0.i = phi ptr [ %8, %7 ], [ @.str.30, %4 ]
  %9 = tail call i32 (ptr, ptr, ...) @fprintf(ptr noundef %5, ptr noundef %.0.i) #14
  %10 = load ptr, ptr %0, align 8, !tbaa !27
  %.not812 = icmp eq ptr %10, null
  br i1 %.not812, label %.critedge, label %.lr.ph.preheader

.lr.ph.preheader:                                 ; preds = %_.exit
  %11 = load ptr, ptr %0, align 8, !tbaa !27
  %12 = load i64, ptr %2, align 8, !tbaa !24
  %13 = getelementptr inbounds nuw %struct.string_list_item, ptr %11, i64 %12
  %14 = icmp ult ptr %10, %13
  br i1 %14, label %.lr.ph, label %.critedge

.lr.ph:                                           ; preds = %.lr.ph.preheader, %.lr.ph
  %.01315 = phi ptr [ %18, %.lr.ph ], [ %10, %.lr.ph.preheader ]
  %15 = load ptr, ptr @stderr, align 8, !tbaa !12
  %16 = load ptr, ptr %.01315, align 8, !tbaa !28
  %17 = tail call i32 (ptr, ptr, ...) @fprintf(ptr noundef %15, ptr noundef nonnull @.str.27, ptr noundef %16) #14
  %18 = getelementptr inbounds nuw i8, ptr %.01315, i64 16
  %19 = load ptr, ptr %0, align 8, !tbaa !27
  %20 = load i64, ptr %2, align 8, !tbaa !24
  %21 = getelementptr inbounds nuw %struct.string_list_item, ptr %19, i64 %20
  %22 = icmp ult ptr %18, %21
  br i1 %22, label %.lr.ph, label %.critedge

.critedge:                                        ; preds = %.lr.ph, %.lr.ph.preheader, %_.exit
  %23 = load i32, ptr @git_gettext_enabled, align 4, !tbaa !14
  %.not4.i9 = icmp eq i32 %23, 0
  br i1 %.not4.i9, label %_.exit11, label %24

24:                                               ; preds = %.critedge
  %25 = tail call ptr @dcgettext(ptr noundef null, ptr noundef nonnull @.str.31, i32 noundef 5) #12
  br label %_.exit11

_.exit11:                                         ; preds = %.critedge, %24
  %.0.i10 = phi ptr [ %25, %24 ], [ @.str.31, %.critedge ]
  tail call void (i32, ptr, ...) @advise_if_enabled(i32 noundef 43, ptr noundef %.0.i10)
  br label %26

26:                                               ; preds = %1, %_.exit11
  ret void
}